; Function Attrs: nounwind uwtable
define internal i32 @filter_frame(ptr noundef readonly captures(none) %0, ptr noundef %1) #1 {
  %3 = getelementptr inbounds nuw i8, ptr %0, i64 16
  %4 = load ptr, ptr %3, align 8, !tbaa !24
  %5 = getelementptr inbounds nuw i8, ptr %4, i64 72
  %6 = load ptr, ptr %5, align 8, !tbaa !4
  %7 = getelementptr inbounds nuw i8, ptr %4, i64 56
  %8 = load ptr, ptr %7, align 8, !tbaa !33
  %9 = load ptr, ptr %8, align 8, !tbaa !34
  %10 = tail call i64 @av_gettime() #5
  %11 = icmp slt i64 %10, 0
  br i1 %11, label %50, label %12

12:                                               ; preds = %2
  %13 = getelementptr inbounds nuw i8, ptr %6, i64 8
  %14 = load i32, ptr %13, align 8, !tbaa !36
  switch i32 %14, label %50 [
    i32 0, label %15
    i32 1, label %18
  ]

15:                                               ; preds = %12
  %16 = getelementptr inbounds nuw i8, ptr %1, i64 312
  %17 = tail call i32 @av_dict_set_int(ptr noundef nonnull %16, ptr noundef nonnull @.str.4, i64 noundef %10, i32 noundef 0) #5
  br label %50

18:                                               ; preds = %12
  %19 = getelementptr inbounds nuw i8, ptr %1, i64 312
  %20 = load ptr, ptr %19, align 8, !tbaa !37
  %21 = tail call ptr @av_dict_get(ptr noundef %20, ptr noundef nonnull @.str.4, ptr noundef null, i32 noundef 0) #5
  %.not = icmp eq ptr %21, null
  br i1 %.not, label %48, label %22

22:                                               ; preds = %18
  %23 = getelementptr inbounds nuw i8, ptr %21, i64 8
  %24 = load ptr, ptr %23, align 8, !tbaa !42
  %25 = tail call i64 @strtoll(ptr noundef captures(none) %24, ptr noundef null, i32 noundef 0) #5
  %26 = sub nsw i64 %10, %25
  %27 = getelementptr inbounds nuw i8, ptr %6, i64 32
  %28 = load i64, ptr %27, align 8, !tbaa !44
  %29 = add nsw i64 %28, %26
  store i64 %29, ptr %27, align 8, !tbaa !44
  %30 = getelementptr inbounds nuw i8, ptr %6, i64 40
  %31 = load i32, ptr %30, align 8, !tbaa !45
  %32 = add nsw i32 %31, 1
  store i32 %32, ptr %30, align 8, !tbaa !45
  %33 = getelementptr inbounds nuw i8, ptr %6, i64 24
  %34 = load i64, ptr %33, align 8, !tbaa !20
  %. = tail call i64 @llvm.smin.i64(i64 %34, i64 %26)
  store i64 %., ptr %33, align 8, !tbaa !20
  %35 = getelementptr inbounds nuw i8, ptr %6, i64 16
  %36 = load i64, ptr %35, align 8, !tbaa !23
  %37 = tail call i64 @llvm.smax.i64(i64 %36, i64 %26)
  store i64 %37, ptr %35, align 8, !tbaa !23
  %38 = sitofp i64 %26 to double
  %39 = fdiv nsz double %38, 1.000000e+06
  %40 = sext i32 %32 to i64
  %41 = sdiv i64 %29, %40
  %42 = sitofp i64 %41 to double
  %43 = fdiv nsz double %42, 1.000000e+06
  %44 = sitofp i64 %37 to double
  %45 = fdiv nsz double %44, 1.000000e+06
  %46 = sitofp i64 %. to double
  %47 = fdiv nsz double %46, 1.000000e+06
  tail call void (ptr, i32, ptr, ...) @av_log(ptr noundef nonnull %6, i32 noundef 32, ptr noundef nonnull @.str.5, double noundef %39, double noundef %43, double noundef %45, double noundef %47) #5
  br label %48

48:                                               ; preds = %22, %18
  %49 = tail call i32 @av_dict_set(ptr noundef nonnull %19, ptr noundef nonnull @.str.4, ptr noundef null, i32 noundef 0) #5
  br label %50

50:                                               ; preds = %15, %48, %12, %2
  %51 = tail call i32 @ff_filter_frame(ptr noundef %9, ptr noundef %1) #5
  ret i32 %51
}